target datalayout = "e-m:e-p270:32:32-p271:32:32-p272:64:64-i64:64-i128:128-f80:128-n8:16:32:64-S128"
target triple = "x86_64-pc-linux-gnu"

%struct.AVFilterContext = type { ptr, ptr, ptr, ptr, ptr, i32, ptr, ptr, i32, ptr, ptr, i32, i32, ptr, ptr, ptr, ptr, i32, ptr, i32, i32 }
%struct.ESTDIFContext = type { ptr, i32, i32, i32, i32, i32, i32, i32, i32, i32, [4 x i32], [4 x i32], [4 x i32], i32, i32, i32, i32, i32, i32, ptr, ptr, [3 x ptr], [3 x ptr] }
%struct.AVFilterLink = type { ptr, ptr, ptr, ptr, i32, i32, i32, i32, %struct.AVRational, i32, i32, i32, %struct.AVChannelLayout, %struct.AVRational, ptr, i32, %struct.AVFilterFormatsConfig, %struct.AVFilterFormatsConfig }
%struct.AVChannelLayout = type { i32, i32, %union.anon.1, ptr }
%union.anon.1 = type { i64 }
%struct.AVRational = type { i32, i32 }
%struct.AVFilterFormatsConfig = type { ptr, ptr, ptr, ptr, ptr }
%struct.FilterLink = type { %struct.AVFilterLink, ptr, i64, i64, i32, i32, i64, i64, i64, i64, %struct.AVRational, ptr }

; Function Attrs: inlinehint nounwind uwtable
define internal ptr @ff_filter_link(ptr noundef %0) #9 {
  %2 = alloca ptr, align 8
  store ptr %0, ptr %2, align 8, !tbaa !24
  %3 = load ptr, ptr %2, align 8, !tbaa !24
  ret ptr %3
}

; Function Attrs: nounwind uwtable
define internal i32 @config_output(ptr noundef %0) #2 {
  %2 = alloca ptr, align 8
  %3 = alloca ptr, align 8
  %4 = alloca ptr, align 8
  %5 = alloca ptr, align 8
  %6 = alloca ptr, align 8
  %7 = alloca ptr, align 8
  %8 = alloca %struct.AVRational, align 4
  %9 = alloca %struct.AVRational, align 4
  %10 = alloca %struct.AVRational, align 4
  %11 = alloca %struct.AVRational, align 4
  store ptr %0, ptr %2, align 8, !tbaa !24
  call void @llvm.lifetime.start.p0(i64 8, ptr %3) #12
  %12 = load ptr, ptr %2, align 8, !tbaa !24
  %13 = call ptr @ff_filter_link(ptr noundef %12)
  store ptr %13, ptr %3, align 8, !tbaa !108
  call void @llvm.lifetime.start.p0(i64 8, ptr %4) #12
  %14 = load ptr, ptr %2, align 8, !tbaa !24
  %15 = getelementptr inbounds nuw %struct.AVFilterLink, ptr %14, i32 0, i32 0
  %16 = load ptr, ptr %15, align 8, !tbaa !110
  store ptr %16, ptr %4, align 8, !tbaa !4
  call void @llvm.lifetime.start.p0(i64 8, ptr %5) #12
  %17 = load ptr, ptr %4, align 8, !tbaa !4
  %18 = getelementptr inbounds nuw %struct.AVFilterContext, ptr %17, i32 0, i32 4
  %19 = load ptr, ptr %18, align 8, !tbaa !112
  %20 = getelementptr inbounds ptr, ptr %19, i64 0
  %21 = load ptr, ptr %20, align 8, !tbaa !24
  store ptr %21, ptr %5, align 8, !tbaa !24
  call void @llvm.lifetime.start.p0(i64 8, ptr %6) #12
  %22 = load ptr, ptr %5, align 8, !tbaa !24
  %23 = call ptr @ff_filter_link(ptr noundef %22)
  store ptr %23, ptr %6, align 8, !tbaa !108
  call void @llvm.lifetime.start.p0(i64 8, ptr %7) #12
  %24 = load ptr, ptr %4, align 8, !tbaa !4
  %25 = getelementptr inbounds nuw %struct.AVFilterContext, ptr %24, i32 0, i32 9
  %26 = load ptr, ptr %25, align 8, !tbaa !9
  store ptr %26, ptr %7, align 8, !tbaa !22
  %27 = load ptr, ptr %2, align 8, !tbaa !24
  %28 = getelementptr inbounds nuw %struct.AVFilterLink, ptr %27, i32 0, i32 13
  call void @llvm.lifetime.start.p0(i64 8, ptr %8) #12
  %29 = load ptr, ptr %5, align 8, !tbaa !24
  %30 = getelementptr inbounds nuw %struct.AVFilterLink, ptr %29, i32 0, i32 13
  %31 = getelementptr inbounds nuw %struct.AVRational, ptr %9, i32 0, i32 0
  store i32 1, ptr %31, align 4, !tbaa !113
  %32 = getelementptr inbounds nuw %struct.AVRational, ptr %9, i32 0, i32 1
  store i32 2, ptr %32, align 4, !tbaa !114
  %33 = load i64, ptr %30, align 8
  %34 = load i64, ptr %9, align 4
  %35 = call i64 @av_mul_q(i64 %33, i64 %34) #14
  store i64 %35, ptr %8, align 4
  call void @llvm.memcpy.p0.p0.i64(ptr align 8 %28, ptr align 4 %8, i64 8, i1 false), !tbaa.struct !115
  call void @llvm.lifetime.end.p0(i64 8, ptr %8) #12
  %36 = load ptr, ptr %7, align 8, !tbaa !22
  %37 = getelementptr inbounds nuw %struct.ESTDIFContext, ptr %36, i32 0, i32 1
  %38 = load i32, ptr %37, align 8, !tbaa !50
  %39 = icmp ne i32 %38, 0
  br i1 %39, label %40, label %50

40:                                               ; preds = %1
  %41 = load ptr, ptr %3, align 8, !tbaa !108
  %42 = getelementptr inbounds nuw %struct.FilterLink, ptr %41, i32 0, i32 10
  call void @llvm.lifetime.start.p0(i64 8, ptr %10) #12
  %43 = load ptr, ptr %6, align 8, !tbaa !108
  %44 = getelementptr inbounds nuw %struct.FilterLink, ptr %43, i32 0, i32 10
  %45 = getelementptr inbounds nuw %struct.AVRational, ptr %11, i32 0, i32 0
  store i32 2, ptr %45, align 4, !tbaa !113
  %46 = getelementptr inbounds nuw %struct.AVRational, ptr %11, i32 0, i32 1
  store i32 1, ptr %46, align 4, !tbaa !114
  %47 = load i64, ptr %44, align 8
  %48 = load i64, ptr %11, align 4
  %49 = call i64 @av_mul_q(i64 %47, i64 %48) #14
  store i64 %49, ptr %10, align 4
  call void @llvm.memcpy.p0.p0.i64(ptr align 8 %42, ptr align 4 %10, i64 8, i1 false), !tbaa.struct !115
  call void @llvm.lifetime.end.p0(i64 8, ptr %10) #12
  br label %50

50:                                               ; preds = %40, %1
  call void @llvm.lifetime.end.p0(i64 8, ptr %7) #12
  call void @llvm.lifetime.end.p0(i64 8, ptr %6) #12
  call void @llvm.lifetime.end.p0(i64 8, ptr %5) #12
  call void @llvm.lifetime.end.p0(i64 8, ptr %4) #12
  call void @llvm.lifetime.end.p0(i64 8, ptr %3) #12
  ret i32 0
}