; Function Attrs: mustprogress nofree nosync nounwind willreturn memory(read, argmem: readwrite, inaccessiblemem: none) uwtable
define internal noundef i32 @config_output(ptr noundef captures(none) initializes((96, 104)) %0) #8 {
  %2 = load ptr, ptr %0, align 8, !tbaa !89
  %3 = getelementptr inbounds nuw i8, ptr %2, i64 32
  %4 = load ptr, ptr %3, align 8, !tbaa !91
  %5 = load ptr, ptr %4, align 8, !tbaa !43
  %6 = getelementptr inbounds nuw i8, ptr %2, i64 72
  %7 = load ptr, ptr %6, align 8, !tbaa !4
  %8 = getelementptr inbounds nuw i8, ptr %0, i64 96
  %9 = getelementptr inbounds nuw i8, ptr %5, i64 96
  %10 = load i64, ptr %9, align 8
  %11 = tail call i64 @av_mul_q(i64 %10, i64 8589934593) #13
  store i64 %11, ptr %8, align 8
  %12 = getelementptr inbounds nuw i8, ptr %7, i64 8
  %13 = load i32, ptr %12, align 8, !tbaa !45
  %.not = icmp eq i32 %13, 0
  br i1 %.not, label %19, label %14

14:                                               ; preds = %1
  %15 = getelementptr inbounds nuw i8, ptr %0, i64 264
  %16 = getelementptr inbounds nuw i8, ptr %5, i64 264
  %17 = load i64, ptr %16, align 8
  %18 = tail call i64 @av_mul_q(i64 %17, i64 4294967298) #13
  store i64 %18, ptr %15, align 8
  br label %19

19:                                               ; preds = %14, %1
  ret i32 0
}